; Function Attrs: nounwind uwtable
define noalias nonnull ptr @l_Lean_Elab_throwUnsupportedSyntax___at_Lean_Elab_Tactic_Rfl_evalApplyRfl___spec__1(ptr noundef readnone captures(none) %0, ptr noundef readnone captures(none) %1, ptr noundef readnone captures(none) %2, ptr noundef readnone captures(none) %3, ptr noundef readnone captures(none) %4, ptr noundef readnone captures(none) %5, ptr noundef readnone captures(none) %6, ptr noundef readnone captures(none) %7) local_unnamed_addr #0 {
  tail call void @lean_inc_heartbeat() #3
  %9 = tail call noalias ptr @mi_malloc_small(i64 noundef 24) #3
  %10 = icmp eq ptr %9, null
  br i1 %10, label %11, label %lean_alloc_closure.exit

11:                                               ; preds = %8
  tail call void @lean_internal_panic_out_of_memory() #4
  unreachable

lean_alloc_closure.exit:                          ; preds = %8
  %12 = getelementptr inbounds nuw i8, ptr %9, i64 4
  store i32 1, ptr %9, align 4, !tbaa !8
  store i32 -184549352, ptr %12, align 4
  %13 = getelementptr inbounds nuw i8, ptr %9, i64 8
  store ptr @l_Lean_Elab_throwUnsupportedSyntax___at_Lean_Elab_Tactic_Rfl_evalApplyRfl___spec__1___rarg, ptr %13, align 8, !tbaa !4
  %14 = getelementptr inbounds nuw i8, ptr %9, i64 16
  store i16 1, ptr %14, align 8, !tbaa !11
  %15 = getelementptr inbounds nuw i8, ptr %9, i64 18
  store i16 0, ptr %15, align 2, !tbaa !11
  ret ptr %9
}